target datalayout = "e-m:e-p270:32:32-p271:32:32-p272:64:64-i64:64-i128:128-f80:128-n8:16:32:64-S128"
target triple = "x86_64-pc-linux-gnu"

%struct.HASH_SEQ_STATUS = type { ptr, i32, ptr, i8, i32 }

@uncommitted_enum_types = internal global ptr null, align 8
@uncommitted_enum_values = internal global ptr null, align 8

; Function Attrs: nounwind uwtable
define dso_local void @SerializeUncommittedEnums(ptr noundef %0, i64 noundef %1) #0 {
  %3 = alloca ptr, align 8
  %4 = alloca i64, align 8
  %5 = alloca ptr, align 8
  %6 = alloca %struct.HASH_SEQ_STATUS, align 8
  %7 = alloca ptr, align 8
  %8 = alloca %struct.HASH_SEQ_STATUS, align 8
  %9 = alloca ptr, align 8
  store ptr %0, ptr %3, align 8
  store i64 %1, ptr %4, align 8
  call void @llvm.lifetime.start.p0(i64 8, ptr %5) #7
  %10 = load ptr, ptr %3, align 8
  store ptr %10, ptr %5, align 8
  %11 = load ptr, ptr @uncommitted_enum_types, align 8
  %12 = icmp ne ptr %11, null
  br i1 %12, label %13, label %24

13:                                               ; preds = %2
  call void @llvm.lifetime.start.p0(i64 32, ptr %6) #7
  call void @llvm.lifetime.start.p0(i64 8, ptr %7) #7
  %14 = load ptr, ptr @uncommitted_enum_types, align 8
  call void @hash_seq_init(ptr noundef %6, ptr noundef %14)
  br label %15

15:                                               ; preds = %18, %13
  %16 = call ptr @hash_seq_search(ptr noundef %6)
  store ptr %16, ptr %7, align 8
  %17 = icmp ne ptr %16, null
  br i1 %17, label %18, label %23

18:                                               ; preds = %15
  %19 = load ptr, ptr %7, align 8
  %20 = load i32, ptr %19, align 4
  %21 = load ptr, ptr %5, align 8
  %22 = getelementptr inbounds nuw i32, ptr %21, i32 1
  store ptr %22, ptr %5, align 8
  store i32 %20, ptr %21, align 4
  br label %15, !llvm.loop !18

23:                                               ; preds = %15
  call void @llvm.lifetime.end.p0(i64 8, ptr %7) #7
  call void @llvm.lifetime.end.p0(i64 32, ptr %6) #7
  br label %24

24:                                               ; preds = %23, %2
  %25 = load ptr, ptr %5, align 8
  %26 = getelementptr inbounds nuw i32, ptr %25, i32 1
  store ptr %26, ptr %5, align 8
  store i32 0, ptr %25, align 4
  %27 = load ptr, ptr @uncommitted_enum_values, align 8
  %28 = icmp ne ptr %27, null
  br i1 %28, label %29, label %40

29:                                               ; preds = %24
  call void @llvm.lifetime.start.p0(i64 32, ptr %8) #7
  call void @llvm.lifetime.start.p0(i64 8, ptr %9) #7
  %30 = load ptr, ptr @uncommitted_enum_values, align 8
  call void @hash_seq_init(ptr noundef %8, ptr noundef %30)
  br label %31

31:                                               ; preds = %34, %29
  %32 = call ptr @hash_seq_search(ptr noundef %8)
  store ptr %32, ptr %9, align 8
  %33 = icmp ne ptr %32, null
  br i1 %33, label %34, label %39

34:                                               ; preds = %31
  %35 = load ptr, ptr %9, align 8
  %36 = load i32, ptr %35, align 4
  %37 = load ptr, ptr %5, align 8
  %38 = getelementptr inbounds nuw i32, ptr %37, i32 1
  store ptr %38, ptr %5, align 8
  store i32 %36, ptr %37, align 4
  br label %31, !llvm.loop !19

39:                                               ; preds = %31
  call void @llvm.lifetime.end.p0(i64 8, ptr %9) #7
  call void @llvm.lifetime.end.p0(i64 32, ptr %8) #7
  br label %40

40:                                               ; preds = %39, %24
  %41 = load ptr, ptr %5, align 8
  %42 = getelementptr inbounds nuw i32, ptr %41, i32 1
  store ptr %42, ptr %5, align 8
  store i32 0, ptr %41, align 4
  call void @llvm.lifetime.end.p0(i64 8, ptr %5) #7
  ret void
}