; Function Attrs: nounwind uwtable
define dso_local void @SerializeUncommittedEnums(ptr noundef writeonly captures(none) %0, i64 noundef %1) local_unnamed_addr #0 {
  %3 = alloca %struct.HASH_SEQ_STATUS, align 8
  %4 = alloca %struct.HASH_SEQ_STATUS, align 8
  %5 = load ptr, ptr @uncommitted_enum_types, align 8
  %.not = icmp eq ptr %5, null
  br i1 %.not, label %12, label %6

6:                                                ; preds = %2
  call void @llvm.lifetime.start.p0(i64 32, ptr nonnull %3) #10
  call void @hash_seq_init(ptr noundef nonnull %3, ptr noundef nonnull %5) #10
  %7 = call ptr @hash_seq_search(ptr noundef nonnull %3) #10
  %.not912 = icmp eq ptr %7, null
  br i1 %.not912, label %._crit_edge, label %.lr.ph

.lr.ph:                                           ; preds = %6, %.lr.ph
  %8 = phi ptr [ %11, %.lr.ph ], [ %7, %6 ]
  %.113 = phi ptr [ %10, %.lr.ph ], [ %0, %6 ]
  %9 = load i32, ptr %8, align 4
  %10 = getelementptr inbounds nuw i8, ptr %.113, i64 4
  store i32 %9, ptr %.113, align 4
  %11 = call ptr @hash_seq_search(ptr noundef nonnull %3) #10
  %.not9 = icmp eq ptr %11, null
  br i1 %.not9, label %._crit_edge, label %.lr.ph, !llvm.loop !17

._crit_edge:                                      ; preds = %.lr.ph, %6
  %.1.lcssa = phi ptr [ %0, %6 ], [ %10, %.lr.ph ]
  call void @llvm.lifetime.end.p0(i64 32, ptr nonnull %3) #10
  br label %12

12:                                               ; preds = %._crit_edge, %2
  %.0 = phi ptr [ %.1.lcssa, %._crit_edge ], [ %0, %2 ]
  %13 = getelementptr inbounds nuw i8, ptr %.0, i64 4
  store i32 0, ptr %.0, align 4
  %14 = load ptr, ptr @uncommitted_enum_values, align 8
  %.not10 = icmp eq ptr %14, null
  br i1 %.not10, label %21, label %15

15:                                               ; preds = %12
  call void @llvm.lifetime.start.p0(i64 32, ptr nonnull %4) #10
  call void @hash_seq_init(ptr noundef nonnull %4, ptr noundef nonnull %14) #10
  %16 = call ptr @hash_seq_search(ptr noundef nonnull %4) #10
  %.not1114 = icmp eq ptr %16, null
  br i1 %.not1114, label %._crit_edge18, label %.lr.ph17

.lr.ph17:                                         ; preds = %15, %.lr.ph17
  %17 = phi ptr [ %20, %.lr.ph17 ], [ %16, %15 ]
  %.315 = phi ptr [ %19, %.lr.ph17 ], [ %13, %15 ]
  %18 = load i32, ptr %17, align 4
  %19 = getelementptr inbounds nuw i8, ptr %.315, i64 4
  store i32 %18, ptr %.315, align 4
  %20 = call ptr @hash_seq_search(ptr noundef nonnull %4) #10
  %.not11 = icmp eq ptr %20, null
  br i1 %.not11, label %._crit_edge18, label %.lr.ph17, !llvm.loop !18

._crit_edge18:                                    ; preds = %.lr.ph17, %15
  %.3.lcssa = phi ptr [ %13, %15 ], [ %19, %.lr.ph17 ]
  call void @llvm.lifetime.end.p0(i64 32, ptr nonnull %4) #10
  br label %21

21:                                               ; preds = %._crit_edge18, %12
  %.2 = phi ptr [ %.3.lcssa, %._crit_edge18 ], [ %13, %12 ]
  store i32 0, ptr %.2, align 4
  ret void
}